target datalayout = "e-m:e-p270:32:32-p271:32:32-p272:64:64-i64:64-i128:128-f80:128-n8:16:32:64-S128"
target triple = "x86_64-pc-linux-gnu"

%struct.mempacket_test_ctx_st = type { ptr, i16, i32, i32, i32, i32, i32, i32, i32, i32 }

@.str.1 = private unnamed_addr constant [37 x i8] c"../openssl/test/helpers/ssltestlib.c\00", align 1

; Function Attrs: inlinehint nounwind uwtable
define internal void @sk_MEMPACKET_pop_free(ptr noundef %0, ptr noundef %1) #3 {
  %3 = alloca ptr, align 8
  %4 = alloca ptr, align 8
  store ptr %0, ptr %3, align 8, !tbaa !43
  store ptr %1, ptr %4, align 8, !tbaa !17
  %5 = load ptr, ptr %3, align 8, !tbaa !43
  %6 = load ptr, ptr %4, align 8, !tbaa !17
  call void @OPENSSL_sk_pop_free(ptr noundef %5, ptr noundef %6)
  ret void
}

; Function Attrs: nounwind uwtable
define internal i32 @mempacket_test_free(ptr noundef %0) #0 {
  %2 = alloca ptr, align 8
  %3 = alloca ptr, align 8
  store ptr %0, ptr %2, align 8, !tbaa !9
  call void @llvm.lifetime.start.p0(i64 8, ptr %3) #10
  %4 = load ptr, ptr %2, align 8, !tbaa !9
  %5 = call ptr @BIO_get_data(ptr noundef %4)
  store ptr %5, ptr %3, align 8, !tbaa !18
  %6 = load ptr, ptr %3, align 8, !tbaa !18
  %7 = getelementptr inbounds nuw %struct.mempacket_test_ctx_st, ptr %6, i32 0, i32 0
  %8 = load ptr, ptr %7, align 8, !tbaa !20
  call void @sk_MEMPACKET_pop_free(ptr noundef %8, ptr noundef @mempacket_free)
  %9 = load ptr, ptr %3, align 8, !tbaa !18
  call void @CRYPTO_free(ptr noundef %9, ptr noundef @.str.1, i32 noundef 336)
  %10 = load ptr, ptr %2, align 8, !tbaa !9
  call void @BIO_set_data(ptr noundef %10, ptr noundef null)
  %11 = load ptr, ptr %2, align 8, !tbaa !9
  call void @BIO_set_init(ptr noundef %11, i32 noundef 0)
  call void @llvm.lifetime.end.p0(i64 8, ptr %3) #10
  ret i32 1
}