; Function Attrs: nounwind uwtable
define internal noundef i32 @mempacket_test_free(ptr noundef %0) #0 {
  %2 = tail call ptr @BIO_get_data(ptr noundef %0) #14
  %3 = load ptr, ptr %2, align 8, !tbaa !15
  tail call void @OPENSSL_sk_pop_free(ptr noundef %3, ptr noundef nonnull @mempacket_free) #14
  tail call void @CRYPTO_free(ptr noundef nonnull %2, ptr noundef nonnull @.str.1, i32 noundef 336) #14
  tail call void @BIO_set_data(ptr noundef %0, ptr noundef null) #14
  tail call void @BIO_set_init(ptr noundef %0, i32 noundef 0) #14
  ret i32 1
}